target datalayout = "e-m:e-p270:32:32-p271:32:32-p272:64:64-i64:64-i128:128-f80:128-n8:16:32:64-S128"
target triple = "x86_64-pc-linux-gnu"

%class.anon.230 = type { ptr }

; Function Attrs: inlinehint mustprogress nounwind uwtable
define internal noundef double @"_ZZN8LightGBM4GBDT12TrainOneIterEPKfS2_ENK3$_0clES2_i"(ptr noundef nonnull align 8 dereferenceable(8) %0, ptr noundef %1, i32 noundef %2) #4 align 2 {
  %4 = alloca ptr, align 8
  %5 = alloca ptr, align 8
  %6 = alloca i32, align 4
  store ptr %0, ptr %4, align 8, !tbaa !578
  store ptr %1, ptr %5, align 8, !tbaa !189
  store i32 %2, ptr %6, align 4, !tbaa !152
  %7 = load ptr, ptr %4, align 8
  %8 = load ptr, ptr %5, align 8, !tbaa !189
  %9 = load i32, ptr %6, align 4, !tbaa !152
  %10 = sext i32 %9 to i64
  %11 = getelementptr inbounds float, ptr %8, i64 %10
  %12 = load float, ptr %11, align 4, !tbaa !199
  %13 = fpext float %12 to double
  %14 = getelementptr inbounds nuw %class.anon.230, ptr %7, i32 0, i32 0
  %15 = load ptr, ptr %14, align 8, !tbaa !203
  %16 = load i32, ptr %6, align 4, !tbaa !152
  %17 = sext i32 %16 to i64
  %18 = getelementptr inbounds double, ptr %15, i64 %17
  %19 = load double, ptr %18, align 8, !tbaa !184
  %20 = fsub double %13, %19
  ret double %20
}

; Function Attrs: mustprogress nounwind uwtable
define linkonce_odr noundef ptr @_ZNKSt9_Any_data9_M_accessEv(ptr noundef nonnull align 8 dereferenceable(16) %0) #0 comdat align 2 {
  %2 = alloca ptr, align 8
  store ptr %0, ptr %2, align 8, !tbaa !1049
  %3 = load ptr, ptr %2, align 8
  %4 = getelementptr inbounds [16 x i8], ptr %3, i64 0, i64 0
  ret ptr %4
}

; Function Attrs: mustprogress uwtable
define internal noundef double @"_ZSt13__invoke_implIdRZN8LightGBM4GBDT12TrainOneIterEPKfS3_E3$_0JS3_iEET_St14__invoke_otherOT0_DpOT1_"(ptr noundef nonnull align 8 dereferenceable(8) %0, ptr noundef nonnull align 8 dereferenceable(8) %1, ptr noundef nonnull align 4 dereferenceable(4) %2) #1 {
  %4 = alloca ptr, align 8
  %5 = alloca ptr, align 8
  %6 = alloca ptr, align 8
  store ptr %0, ptr %4, align 8, !tbaa !578
  store ptr %1, ptr %5, align 8, !tbaa !1015
  store ptr %2, ptr %6, align 8, !tbaa !187
  %7 = load ptr, ptr %4, align 8, !tbaa !578
  %8 = load ptr, ptr %5, align 8, !tbaa !1015
  %9 = load ptr, ptr %8, align 8, !tbaa !189
  %10 = load ptr, ptr %6, align 8, !tbaa !187
  %11 = load i32, ptr %10, align 4, !tbaa !152
  %12 = call noundef double @"_ZZN8LightGBM4GBDT12TrainOneIterEPKfS2_ENK3$_0clES2_i"(ptr noundef nonnull align 8 dereferenceable(8) %7, ptr noundef %9, i32 noundef %11)
  ret double %12
}

; Function Attrs: mustprogress nounwind uwtable
define internal noundef nonnull align 8 dereferenceable(8) ptr @"_ZNKSt9_Any_data9_M_accessIZN8LightGBM4GBDT12TrainOneIterEPKfS4_E3$_0EERKT_v"(ptr noundef nonnull align 8 dereferenceable(16) %0) #0 align 2 {
  %2 = alloca ptr, align 8
  store ptr %0, ptr %2, align 8, !tbaa !1049
  %3 = load ptr, ptr %2, align 8
  %4 = call noundef ptr @_ZNKSt9_Any_data9_M_accessEv(ptr noundef nonnull align 8 dereferenceable(16) %3) #7
  ret ptr %4
}

; Function Attrs: mustprogress uwtable
define internal noundef double @"_ZSt10__invoke_rIdRZN8LightGBM4GBDT12TrainOneIterEPKfS3_E3$_0JS3_iEENSt9enable_ifIXsr6__and_ISt6__not_ISt7is_voidIT_EESt14is_convertibleINSt15__invoke_resultIT0_JDpT1_EE4typeES9_EEE5valueES9_E4typeEOSE_DpOSF_"(ptr noundef nonnull align 8 dereferenceable(8) %0, ptr noundef nonnull align 8 dereferenceable(8) %1, ptr noundef nonnull align 4 dereferenceable(4) %2) #1 {
  %4 = alloca ptr, align 8
  %5 = alloca ptr, align 8
  %6 = alloca ptr, align 8
  store ptr %0, ptr %4, align 8, !tbaa !578
  store ptr %1, ptr %5, align 8, !tbaa !1015
  store ptr %2, ptr %6, align 8, !tbaa !187
  %7 = load ptr, ptr %4, align 8, !tbaa !578
  %8 = load ptr, ptr %5, align 8, !tbaa !1015
  %9 = load ptr, ptr %6, align 8, !tbaa !187
  %10 = call noundef double @"_ZSt13__invoke_implIdRZN8LightGBM4GBDT12TrainOneIterEPKfS3_E3$_0JS3_iEET_St14__invoke_otherOT0_DpOT1_"(ptr noundef nonnull align 8 dereferenceable(8) %7, ptr noundef nonnull align 8 dereferenceable(8) %8, ptr noundef nonnull align 4 dereferenceable(4) %9)
  ret double %10
}

; Function Attrs: mustprogress nounwind uwtable
define internal noundef ptr @"_ZNSt14_Function_base13_Base_managerIZN8LightGBM4GBDT12TrainOneIterEPKfS4_E3$_0E14_M_get_pointerERKSt9_Any_data"(ptr noundef nonnull align 8 dereferenceable(16) %0) #0 align 2 {
  %2 = alloca ptr, align 8
  %3 = alloca ptr, align 8
  store ptr %0, ptr %2, align 8, !tbaa !1049
  call void @llvm.lifetime.start.p0(i64 8, ptr %3) #7
  %4 = load ptr, ptr %2, align 8, !tbaa !1049
  %5 = call noundef nonnull align 8 dereferenceable(8) ptr @"_ZNKSt9_Any_data9_M_accessIZN8LightGBM4GBDT12TrainOneIterEPKfS4_E3$_0EERKT_v"(ptr noundef nonnull align 8 dereferenceable(16) %4) #7
  store ptr %5, ptr %3, align 8, !tbaa !578
  %6 = load ptr, ptr %3, align 8, !tbaa !578
  call void @llvm.lifetime.end.p0(i64 8, ptr %3) #7
  ret ptr %6
}

; Function Attrs: mustprogress uwtable
define internal noundef double @"_ZNSt17_Function_handlerIFdPKfiEZN8LightGBM4GBDT12TrainOneIterES1_S1_E3$_0E9_M_invokeERKSt9_Any_dataOS1_Oi"(ptr noundef nonnull align 8 dereferenceable(16) %0, ptr noundef nonnull align 8 dereferenceable(8) %1, ptr noundef nonnull align 4 dereferenceable(4) %2) #1 align 2 {
  %4 = alloca ptr, align 8
  %5 = alloca ptr, align 8
  %6 = alloca ptr, align 8
  store ptr %0, ptr %4, align 8, !tbaa !1049
  store ptr %1, ptr %5, align 8, !tbaa !1015
  store ptr %2, ptr %6, align 8, !tbaa !187
  %7 = load ptr, ptr %4, align 8, !tbaa !1049
  %8 = call noundef ptr @"_ZNSt14_Function_base13_Base_managerIZN8LightGBM4GBDT12TrainOneIterEPKfS4_E3$_0E14_M_get_pointerERKSt9_Any_data"(ptr noundef nonnull align 8 dereferenceable(16) %7) #7
  %9 = load ptr, ptr %5, align 8, !tbaa !1015
  %10 = load ptr, ptr %6, align 8, !tbaa !187
  %11 = call noundef double @"_ZSt10__invoke_rIdRZN8LightGBM4GBDT12TrainOneIterEPKfS3_E3$_0JS3_iEENSt9enable_ifIXsr6__and_ISt6__not_ISt7is_voidIT_EESt14is_convertibleINSt15__invoke_resultIT0_JDpT1_EE4typeES9_EEE5valueES9_E4typeEOSE_DpOSF_"(ptr noundef nonnull align 8 dereferenceable(8) %8, ptr noundef nonnull align 8 dereferenceable(8) %9, ptr noundef nonnull align 4 dereferenceable(4) %10)
  ret double %11
}