; Function Attrs: mustprogress nofree norecurse nosync nounwind willreturn memory(read, inaccessiblemem: none) uwtable
define internal noundef double @"_ZNSt17_Function_handlerIFdPKfiEZN8LightGBM4GBDT12TrainOneIterES1_S1_E3$_0E9_M_invokeERKSt9_Any_dataOS1_Oi"(ptr noundef nonnull readonly align 8 captures(none) dereferenceable(16) %0, ptr noundef nonnull readonly align 8 captures(none) dereferenceable(8) %1, ptr noundef nonnull readonly align 4 captures(none) dereferenceable(4) %2) #26 align 2 {
  %.val = load ptr, ptr %0, align 8, !tbaa !644
  %.val3 = load ptr, ptr %1, align 8, !tbaa !340
  %.val4 = load i32, ptr %2, align 4, !tbaa !174
  %4 = sext i32 %.val4 to i64
  %5 = getelementptr inbounds float, ptr %.val3, i64 %4
  %6 = load float, ptr %5, align 4, !tbaa !348
  %7 = fpext float %6 to double
  %8 = getelementptr inbounds double, ptr %.val, i64 %4
  %9 = load double, ptr %8, align 8, !tbaa !314
  %10 = fsub double %7, %9
  ret double %10
}